; Function Attrs: mustprogress uwtable
define dso_local void @_ZN2EA4StdC8Callback15ReleaseCallbackEv(ptr noundef nonnull align 8 dereferenceable(80) %this) local_unnamed_addr #1 align 2 {
entry:
  %mpFunction.i = getelementptr inbounds i8, ptr %this, i64 32
  %0 = load ptr, ptr %mpFunction.i, align 8
  %tobool.not.i = icmp eq ptr %0, null
  br i1 %tobool.not.i, label %_ZN2EA4StdC8Callback4CallEmm.exit, label %if.then.i

if.then.i:                                        ; preds = %entry
  %mpFunctionArg.i = getelementptr inbounds i8, ptr %this, i64 40
  %1 = load ptr, ptr %mpFunctionArg.i, align 8
  tail call void %0(ptr noundef nonnull %this, ptr noundef %1, i64 noundef 1, i64 noundef 0)
  br label %_ZN2EA4StdC8Callback4CallEmm.exit

_ZN2EA4StdC8Callback4CallEmm.exit:                ; preds = %entry, %if.then.i
  ret void
}